target datalayout = "e-m:e-p270:32:32-p271:32:32-p272:64:64-i64:64-i128:128-f80:128-n8:16:32:64-S128"
target triple = "x86_64-pc-linux-gnu"

; Function Attrs: nounwind uwtable
define dso_local i32 @bit_super_set(ptr noundef %0, ptr noundef %1) #0 {
  %3 = alloca i32, align 4
  %4 = alloca ptr, align 8
  %5 = alloca ptr, align 8
  %6 = alloca i64, align 8
  %7 = alloca i64, align 8
  %8 = alloca i32, align 4
  store ptr %0, ptr %4, align 8
  store ptr %1, ptr %5, align 8
  call void @llvm.lifetime.start.p0(i64 8, ptr %6) #12
  br label %9

9:                                                ; preds = %2
  br label %10

10:                                               ; preds = %9
  br label %11

11:                                               ; preds = %10
  br label %12

12:                                               ; preds = %11
  br label %13

13:                                               ; preds = %12
  br label %14

14:                                               ; preds = %13
  store i64 0, ptr %6, align 8
  br label %15

15:                                               ; preds = %87, %14
  %16 = load i64, ptr %6, align 8
  %17 = load ptr, ptr %4, align 8
  %18 = getelementptr inbounds i64, ptr %17, i64 1
  %19 = load i64, ptr %18, align 8
  %20 = icmp slt i64 %16, %19
  br i1 %20, label %21, label %90

21:                                               ; preds = %15
  %22 = load ptr, ptr %4, align 8
  %23 = load i64, ptr %6, align 8
  %24 = ashr i64 %23, 6
  %25 = add nsw i64 %24, 2
  %26 = getelementptr inbounds i64, ptr %22, i64 %25
  %27 = load i64, ptr %26, align 8
  %28 = load ptr, ptr %4, align 8
  %29 = load i64, ptr %6, align 8
  %30 = ashr i64 %29, 6
  %31 = add nsw i64 %30, 2
  %32 = getelementptr inbounds i64, ptr %28, i64 %31
  %33 = load i64, ptr %32, align 8
  %34 = load ptr, ptr %5, align 8
  %35 = load i64, ptr %6, align 8
  %36 = ashr i64 %35, 6
  %37 = add nsw i64 %36, 2
  %38 = getelementptr inbounds i64, ptr %34, i64 %37
  %39 = load i64, ptr %38, align 8
  %40 = and i64 %33, %39
  %41 = icmp ne i64 %27, %40
  br i1 %41, label %42, label %86

42:                                               ; preds = %21
  call void @llvm.lifetime.start.p0(i64 8, ptr %7) #12
  %43 = load i64, ptr %6, align 8
  %44 = add i64 %43, 64
  %45 = load ptr, ptr %4, align 8
  %46 = getelementptr inbounds i64, ptr %45, i64 1
  %47 = load i64, ptr %46, align 8
  %48 = icmp ule i64 %44, %47
  br i1 %48, label %49, label %50

49:                                               ; preds = %42
  store i32 0, ptr %3, align 4
  store i32 1, ptr %8, align 4
  br label %83

50:                                               ; preds = %42
  %51 = load ptr, ptr %4, align 8
  %52 = getelementptr inbounds i64, ptr %51, i64 1
  %53 = load i64, ptr %52, align 8
  %54 = and i64 %53, 63
  %55 = shl i64 1, %54
  %56 = sub nsw i64 %55, 1
  store i64 %56, ptr %7, align 8
  %57 = load ptr, ptr %4, align 8
  %58 = load i64, ptr %6, align 8
  %59 = ashr i64 %58, 6
  %60 = add nsw i64 %59, 2
  %61 = getelementptr inbounds i64, ptr %57, i64 %60
  %62 = load i64, ptr %61, align 8
  %63 = load i64, ptr %7, align 8
  %64 = and i64 %62, %63
  %65 = load ptr, ptr %4, align 8
  %66 = load i64, ptr %6, align 8
  %67 = ashr i64 %66, 6
  %68 = add nsw i64 %67, 2
  %69 = getelementptr inbounds i64, ptr %65, i64 %68
  %70 = load i64, ptr %69, align 8
  %71 = load ptr, ptr %5, align 8
  %72 = load i64, ptr %6, align 8
  %73 = ashr i64 %72, 6
  %74 = add nsw i64 %73, 2
  %75 = getelementptr inbounds i64, ptr %71, i64 %74
  %76 = load i64, ptr %75, align 8
  %77 = and i64 %70, %76
  %78 = load i64, ptr %7, align 8
  %79 = and i64 %77, %78
  %80 = icmp ne i64 %64, %79
  br i1 %80, label %81, label %82

81:                                               ; preds = %50
  store i32 0, ptr %3, align 4
  store i32 1, ptr %8, align 4
  br label %83

82:                                               ; preds = %50
  store i32 0, ptr %8, align 4
  br label %83

83:                                               ; preds = %82, %81, %49
  call void @llvm.lifetime.end.p0(i64 8, ptr %7) #12
  %84 = load i32, ptr %8, align 4
  switch i32 %84, label %91 [
    i32 0, label %85
  ]

85:                                               ; preds = %83
  br label %86

86:                                               ; preds = %85, %21
  br label %87

87:                                               ; preds = %86
  %88 = load i64, ptr %6, align 8
  %89 = add i64 %88, 64
  store i64 %89, ptr %6, align 8
  br label %15, !llvm.loop !33

90:                                               ; preds = %15
  store i32 1, ptr %3, align 4
  store i32 1, ptr %8, align 4
  br label %91

91:                                               ; preds = %90, %83
  call void @llvm.lifetime.end.p0(i64 8, ptr %6) #12
  %92 = load i32, ptr %3, align 4
  ret i32 %92
}