; Function Attrs: nofree norecurse nosync nounwind memory(argmem: read) uwtable
define dso_local range(i32 0, 2) i32 @bit_super_set(ptr noundef readonly captures(none) %0, ptr noundef readonly captures(none) %1) #3 {
  %3 = getelementptr inbounds nuw i8, ptr %0, i64 8
  %4 = load i64, ptr %3, align 8
  %5 = icmp sgt i64 %4, 0
  br i1 %5, label %.lr.ph, label %.critedge

.lr.ph:                                           ; preds = %2
  %6 = and i64 %4, 63
  %notmask = shl nsw i64 -1, %6
  %7 = xor i64 %notmask, -1
  br label %8

8:                                                ; preds = %.lr.ph, %._crit_edge
  %.02228 = phi i64 [ 0, %.lr.ph ], [ %.pre, %._crit_edge ]
  %9 = ashr exact i64 %.02228, 6
  %10 = add nsw i64 %9, 2
  %11 = getelementptr inbounds i64, ptr %0, i64 %10
  %12 = load i64, ptr %11, align 8
  %13 = getelementptr inbounds i64, ptr %1, i64 %10
  %14 = load i64, ptr %13, align 8
  %15 = and i64 %14, %12
  %.not = icmp eq i64 %12, %15
  %.pre = add i64 %.02228, 64
  br i1 %.not, label %._crit_edge, label %16

16:                                               ; preds = %8
  %.not26 = icmp ugt i64 %.pre, %4
  br i1 %.not26, label %17, label %.critedge

17:                                               ; preds = %16
  %18 = xor i64 %15, %12
  %19 = and i64 %18, %7
  %.not27 = icmp eq i64 %19, 0
  br i1 %.not27, label %._crit_edge, label %.critedge

._crit_edge:                                      ; preds = %8, %17
  %20 = icmp slt i64 %.pre, %4
  br i1 %20, label %8, label %.critedge, !llvm.loop !34

.critedge:                                        ; preds = %17, %._crit_edge, %16, %2
  %.2 = phi i32 [ 1, %2 ], [ 0, %16 ], [ 1, %._crit_edge ], [ 0, %17 ]
  ret i32 %.2
}